CCS PCM C Compiler, Version 5.007, 61971               01-Þub-20 16:34

               Filename:   C:\Users\oguzn\OneDrive\Masaüstü\ccs c örn\led_button2.lst

               ROM used:   90 words (1%)
                           Largest free fragment is 2048
               RAM used:   6 (2%) at main() level
                           9 (2%) worst case
               Stack used: 0 locations
               Stack size: 8

*
0000:  MOVLW  00
0001:  MOVWF  0A
0002:  GOTO   019
0003:  NOP
.................... #include <16F877.h> 
.................... //////// Standard Header file for the PIC16F877 device //////////////// 
.................... #device PIC16F877 
....................  
.................... #list 
....................  
.................... #fuses XT,NOWDT,NOPROTECT,NOBROWNOUT,NOLVP,NOPUT,NOWRT,NODEBUG,NOCPD 
.................... #use delay(clock=4M) 
0004:  MOVLW  24
0005:  MOVWF  04
0006:  BCF    03.7
0007:  MOVF   00,W
0008:  BTFSC  03.2
0009:  GOTO   018
000A:  MOVLW  01
000B:  MOVWF  78
000C:  CLRF   77
000D:  DECFSZ 77,F
000E:  GOTO   00D
000F:  DECFSZ 78,F
0010:  GOTO   00C
0011:  MOVLW  4A
0012:  MOVWF  77
0013:  DECFSZ 77,F
0014:  GOTO   013
0015:  GOTO   016
0016:  DECFSZ 00,F
0017:  GOTO   00A
0018:  RETURN
.................... void main() 
0019:  BSF    03.5
001A:  BSF    1F.0
001B:  BSF    1F.1
001C:  BSF    1F.2
001D:  BCF    1F.3
001E:  BCF    03.7
001F:  MOVLW  1F
0020:  ANDWF  03,F
.................... { 
....................  
.................... set_tris_b(0x00); 
0021:  MOVLW  00
0022:  MOVWF  06
.................... set_tris_d(0x03); 
0023:  MOVLW  03
0024:  MOVWF  08
....................  
.................... #define buton1 pin_d0 
.................... #define buton2 pin_d1 
....................  
.................... output_b(0); 
0025:  CLRF   06
0026:  BCF    03.5
0027:  CLRF   06
.................... int x; 
....................  
....................  
....................  
....................    while(TRUE) 
....................    { 
....................      x=1;   
0028:  MOVLW  01
0029:  MOVWF  21
....................      if(input(buton1) == 1 ){ 
002A:  BSF    03.5
002B:  BSF    08.0
002C:  BCF    03.5
002D:  BTFSS  08.0
002E:  GOTO   058
....................      /* 
....................      output_b(1);1.port için 2^0 output(0b 00000001); 
....................      delay_ms(100);     
....................      output_b(2);2.port için 2^1 output(0b 00000010); 
....................      delay_ms(100); 
....................      output_b(4);3.port için 2^3 parantez içi decimal olarak yazýlýr 0. pinden düþünerekten 
....................      delay_ms(100); 
....................      output_b(8);4.port için 
....................      delay_ms(100); 
....................      output_b(16);5.port için 
....................      delay_ms(100); 
....................      output_b(32);6.port için 
....................      delay_ms(100); 
....................      output_b(64);7.port için 
....................      delay_ms(100); 
....................      output_b(128);8.port için 
....................      */ 
....................      for(int a=0;a<8;++a){ 
002F:  CLRF   22
0030:  MOVF   22,W
0031:  SUBLW  07
0032:  BTFSS  03.0
0033:  GOTO   040
....................       
....................       
....................      output_b(x); 
0034:  BSF    03.5
0035:  CLRF   06
0036:  BCF    03.5
0037:  MOVF   21,W
0038:  MOVWF  06
....................      delay_ms(100); 
0039:  MOVLW  64
003A:  MOVWF  24
003B:  CALL   004
....................      x=x*2; 
003C:  BCF    03.0
003D:  RLF    21,F
003E:  INCF   22,F
003F:  GOTO   030
....................       
....................      } 
....................      x=x/2; 
0040:  BCF    03.0
0041:  RRF    21,F
....................      if(input(buton2)==1) 
0042:  BSF    03.5
0043:  BSF    08.1
0044:  BCF    03.5
0045:  BTFSS  08.1
0046:  GOTO   058
....................      { 
....................      for(int a=0;a<8;++a){ 
0047:  CLRF   23
0048:  MOVF   23,W
0049:  SUBLW  07
004A:  BTFSS  03.0
004B:  GOTO   058
....................       
....................       
....................      output_b(x); 
004C:  BSF    03.5
004D:  CLRF   06
004E:  BCF    03.5
004F:  MOVF   21,W
0050:  MOVWF  06
....................      delay_ms(100); 
0051:  MOVLW  64
0052:  MOVWF  24
0053:  CALL   004
....................      x=x/2; 
0054:  BCF    03.0
0055:  RRF    21,F
0056:  INCF   23,F
0057:  GOTO   048
....................       
....................      } 
....................       
....................      } 
....................      
....................      } 
0058:  GOTO   028
....................       
....................       
....................        
....................        
....................    } 
....................  
.................... } 
0059:  SLEEP

Configuration Fuses:
   Word  1: 3F39   XT NOWDT NOPUT NOBROWNOUT NOLVP NOCPD NOWRT NODEBUG NOPROTECT
